; ModuleID = '57/2824.c'
source_filename = "57/2824.c"
target datalayout = "e-m:e-p270:32:32-p271:32:32-p272:64:64-i64:64-f80:128-n8:16:32:64-S128"
target triple = "x86_64-pc-linux-gnu"

@.str = private unnamed_addr constant [3 x i8] c"%d\00", align 1
@.str.1 = private unnamed_addr constant [3 x i8] c"%s\00", align 1
@.str.2 = private unnamed_addr constant [4 x i8] c"%s\0A\00", align 1

; Function Attrs: noinline nounwind uwtable
define dso_local i32 @main(i32 %0, i8** %1) #0 {
  %3 = alloca i32, align 4
  %4 = alloca i32, align 4
  %5 = alloca i8**, align 8
  %6 = alloca i32, align 4
  %7 = alloca i32, align 4
  %8 = alloca [50 x [20 x i8]], align 16
  %9 = alloca [50 x i8], align 16
  store i32 0, i32* %3, align 4
  store i32 %0, i32* %4, align 4
  store i8** %1, i8*** %5, align 8
  %10 = call i32 (i8*, ...) @__isoc99_scanf(i8* getelementptr inbounds ([3 x i8], [3 x i8]* @.str, i64 0, i64 0), i32* %6)
  store i32 0, i32* %7, align 4
  br label %11

11:                                               ; preds = %21, %2
  %12 = load i32, i32* %7, align 4
  %13 = load i32, i32* %6, align 4
  %14 = icmp slt i32 %12, %13
  br i1 %14, label %15, label %24

15:                                               ; preds = %11
  %16 = load i32, i32* %7, align 4
  %17 = sext i32 %16 to i64
  %18 = getelementptr inbounds [50 x [20 x i8]], [50 x [20 x i8]]* %8, i64 0, i64 %17
  %19 = getelementptr inbounds [20 x i8], [20 x i8]* %18, i64 0, i64 0
  %20 = call i32 (i8*, ...) @__isoc99_scanf(i8* getelementptr inbounds ([3 x i8], [3 x i8]* @.str.1, i64 0, i64 0), i8* %19)
  br label %21

21:                                               ; preds = %15
  %22 = load i32, i32* %7, align 4
  %23 = add nsw i32 %22, 1
  store i32 %23, i32* %7, align 4
  br label %11

24:                                               ; preds = %11
  store i32 0, i32* %7, align 4
  br label %25

25:                                               ; preds = %153, %24
  %26 = load i32, i32* %7, align 4
  %27 = load i32, i32* %6, align 4
  %28 = icmp slt i32 %26, %27
  br i1 %28, label %29, label %156

29:                                               ; preds = %25
  %30 = load i32, i32* %7, align 4
  %31 = sext i32 %30 to i64
  %32 = getelementptr inbounds [50 x [20 x i8]], [50 x [20 x i8]]* %8, i64 0, i64 %31
  %33 = getelementptr inbounds [20 x i8], [20 x i8]* %32, i64 0, i64 0
  %34 = call i64 @strlen(i8* %33) #3
  %35 = sub i64 %34, 1
  %36 = trunc i64 %35 to i8
  %37 = load i32, i32* %7, align 4
  %38 = sext i32 %37 to i64
  %39 = getelementptr inbounds [50 x i8], [50 x i8]* %9, i64 0, i64 %38
  store i8 %36, i8* %39, align 1
  %40 = load i32, i32* %7, align 4
  %41 = sext i32 %40 to i64
  %42 = getelementptr inbounds [50 x [20 x i8]], [50 x [20 x i8]]* %8, i64 0, i64 %41
  %43 = load i32, i32* %7, align 4
  %44 = sext i32 %43 to i64
  %45 = getelementptr inbounds [50 x i8], [50 x i8]* %9, i64 0, i64 %44
  %46 = load i8, i8* %45, align 1
  %47 = sext i8 %46 to i64
  %48 = getelementptr inbounds [20 x i8], [20 x i8]* %42, i64 0, i64 %47
  %49 = load i8, i8* %48, align 1
  %50 = sext i8 %49 to i32
  %51 = icmp eq i32 %50, 114
  br i1 %51, label %52, label %73

52:                                               ; preds = %29
  %53 = load i32, i32* %7, align 4
  %54 = sext i32 %53 to i64
  %55 = getelementptr inbounds [50 x [20 x i8]], [50 x [20 x i8]]* %8, i64 0, i64 %54
  %56 = load i32, i32* %7, align 4
  %57 = sext i32 %56 to i64
  %58 = getelementptr inbounds [50 x i8], [50 x i8]* %9, i64 0, i64 %57
  %59 = load i8, i8* %58, align 1
  %60 = sext i8 %59 to i64
  %61 = getelementptr inbounds [20 x i8], [20 x i8]* %55, i64 0, i64 %60
  store i8 0, i8* %61, align 1
  %62 = load i32, i32* %7, align 4
  %63 = sext i32 %62 to i64
  %64 = getelementptr inbounds [50 x [20 x i8]], [50 x [20 x i8]]* %8, i64 0, i64 %63
  %65 = load i32, i32* %7, align 4
  %66 = sext i32 %65 to i64
  %67 = getelementptr inbounds [50 x i8], [50 x i8]* %9, i64 0, i64 %66
  %68 = load i8, i8* %67, align 1
  %69 = sext i8 %68 to i32
  %70 = sub nsw i32 %69, 1
  %71 = sext i32 %70 to i64
  %72 = getelementptr inbounds [20 x i8], [20 x i8]* %64, i64 0, i64 %71
  store i8 0, i8* %72, align 1
  br label %73

73:                                               ; preds = %52, %29
  %74 = load i32, i32* %7, align 4
  %75 = sext i32 %74 to i64
  %76 = getelementptr inbounds [50 x [20 x i8]], [50 x [20 x i8]]* %8, i64 0, i64 %75
  %77 = load i32, i32* %7, align 4
  %78 = sext i32 %77 to i64
  %79 = getelementptr inbounds [50 x i8], [50 x i8]* %9, i64 0, i64 %78
  %80 = load i8, i8* %79, align 1
  %81 = sext i8 %80 to i64
  %82 = getelementptr inbounds [20 x i8], [20 x i8]* %76, i64 0, i64 %81
  %83 = load i8, i8* %82, align 1
  %84 = sext i8 %83 to i32
  %85 = icmp eq i32 %84, 121
  br i1 %85, label %86, label %107

86:                                               ; preds = %73
  %87 = load i32, i32* %7, align 4
  %88 = sext i32 %87 to i64
  %89 = getelementptr inbounds [50 x [20 x i8]], [50 x [20 x i8]]* %8, i64 0, i64 %88
  %90 = load i32, i32* %7, align 4
  %91 = sext i32 %90 to i64
  %92 = getelementptr inbounds [50 x i8], [50 x i8]* %9, i64 0, i64 %91
  %93 = load i8, i8* %92, align 1
  %94 = sext i8 %93 to i64
  %95 = getelementptr inbounds [20 x i8], [20 x i8]* %89, i64 0, i64 %94
  store i8 0, i8* %95, align 1
  %96 = load i32, i32* %7, align 4
  %97 = sext i32 %96 to i64
  %98 = getelementptr inbounds [50 x [20 x i8]], [50 x [20 x i8]]* %8, i64 0, i64 %97
  %99 = load i32, i32* %7, align 4
  %100 = sext i32 %99 to i64
  %101 = getelementptr inbounds [50 x i8], [50 x i8]* %9, i64 0, i64 %100
  %102 = load i8, i8* %101, align 1
  %103 = sext i8 %102 to i32
  %104 = sub nsw i32 %103, 1
  %105 = sext i32 %104 to i64
  %106 = getelementptr inbounds [20 x i8], [20 x i8]* %98, i64 0, i64 %105
  store i8 0, i8* %106, align 1
  br label %107

107:                                              ; preds = %86, %73
  %108 = load i32, i32* %7, align 4
  %109 = sext i32 %108 to i64
  %110 = getelementptr inbounds [50 x [20 x i8]], [50 x [20 x i8]]* %8, i64 0, i64 %109
  %111 = load i32, i32* %7, align 4
  %112 = sext i32 %111 to i64
  %113 = getelementptr inbounds [50 x i8], [50 x i8]* %9, i64 0, i64 %112
  %114 = load i8, i8* %113, align 1
  %115 = sext i8 %114 to i64
  %116 = getelementptr inbounds [20 x i8], [20 x i8]* %110, i64 0, i64 %115
  %117 = load i8, i8* %116, align 1
  %118 = sext i8 %117 to i32
  %119 = icmp eq i32 %118, 103
  br i1 %119, label %120, label %152

120:                                              ; preds = %107
  %121 = load i32, i32* %7, align 4
  %122 = sext i32 %121 to i64
  %123 = getelementptr inbounds [50 x [20 x i8]], [50 x [20 x i8]]* %8, i64 0, i64 %122
  %124 = load i32, i32* %7, align 4
  %125 = sext i32 %124 to i64
  %126 = getelementptr inbounds [50 x i8], [50 x i8]* %9, i64 0, i64 %125
  %127 = load i8, i8* %126, align 1
  %128 = sext i8 %127 to i64
  %129 = getelementptr inbounds [20 x i8], [20 x i8]* %123, i64 0, i64 %128
  store i8 0, i8* %129, align 1
  %130 = load i32, i32* %7, align 4
  %131 = sext i32 %130 to i64
  %132 = getelementptr inbounds [50 x [20 x i8]], [50 x [20 x i8]]* %8, i64 0, i64 %131
  %133 = load i32, i32* %7, align 4
  %134 = sext i32 %133 to i64
  %135 = getelementptr inbounds [50 x i8], [50 x i8]* %9, i64 0, i64 %134
  %136 = load i8, i8* %135, align 1
  %137 = sext i8 %136 to i32
  %138 = sub nsw i32 %137, 1
  %139 = sext i32 %138 to i64
  %140 = getelementptr inbounds [20 x i8], [20 x i8]* %132, i64 0, i64 %139
  store i8 0, i8* %140, align 1
  %141 = load i32, i32* %7, align 4
  %142 = sext i32 %141 to i64
  %143 = getelementptr inbounds [50 x [20 x i8]], [50 x [20 x i8]]* %8, i64 0, i64 %142
  %144 = load i32, i32* %7, align 4
  %145 = sext i32 %144 to i64
  %146 = getelementptr inbounds [50 x i8], [50 x i8]* %9, i64 0, i64 %145
  %147 = load i8, i8* %146, align 1
  %148 = sext i8 %147 to i32
  %149 = sub nsw i32 %148, 2
  %150 = sext i32 %149 to i64
  %151 = getelementptr inbounds [20 x i8], [20 x i8]* %143, i64 0, i64 %150
  store i8 0, i8* %151, align 1
  br label %152

152:                                              ; preds = %120, %107
  br label %153

153:                                              ; preds = %152
  %154 = load i32, i32* %7, align 4
  %155 = add nsw i32 %154, 1
  store i32 %155, i32* %7, align 4
  br label %25

156:                                              ; preds = %25
  store i32 0, i32* %7, align 4
  br label %157

157:                                              ; preds = %167, %156
  %158 = load i32, i32* %7, align 4
  %159 = load i32, i32* %6, align 4
  %160 = icmp slt i32 %158, %159
  br i1 %160, label %161, label %170

161:                                              ; preds = %157
  %162 = load i32, i32* %7, align 4
  %163 = sext i32 %162 to i64
  %164 = getelementptr inbounds [50 x [20 x i8]], [50 x [20 x i8]]* %8, i64 0, i64 %163
  %165 = getelementptr inbounds [20 x i8], [20 x i8]* %164, i64 0, i64 0
  %166 = call i32 (i8*, ...) @printf(i8* getelementptr inbounds ([4 x i8], [4 x i8]* @.str.2, i64 0, i64 0), i8* %165)
  br label %167

167:                                              ; preds = %161
  %168 = load i32, i32* %7, align 4
  %169 = add nsw i32 %168, 1
  store i32 %169, i32* %7, align 4
  br label %157

170:                                              ; preds = %157
  ret i32 0
}

declare dso_local i32 @__isoc99_scanf(i8*, ...) #1

; Function Attrs: nounwind readonly
declare dso_local i64 @strlen(i8*) #2

declare dso_local i32 @printf(i8*, ...) #1


!llvm.module.flags = !{!0}
!llvm.ident = !{!1}

!0 = !{i32 1, !"wchar_size", i32 4}
!1 = !{!"clang version 10.0.0-4ubuntu1 "}
